; ModuleID = '40/2853.c'
source_filename = "40/2853.c"
target datalayout = "e-m:e-p270:32:32-p271:32:32-p272:64:64-i64:64-f80:128-n8:16:32:64-S128"
target triple = "x86_64-pc-linux-gnu"

@.str = private unnamed_addr constant [16 x i8] c"%lf%lf%lf%lf%lf\00", align 1
@.str.1 = private unnamed_addr constant [15 x i8] c"Invalid input\0A\00", align 1
@.str.2 = private unnamed_addr constant [7 x i8] c"%.4lf\0A\00", align 1

; Function Attrs: noinline nounwind uwtable
define dso_local double @area(double %0, double %1, double %2, double %3, double %4) #0 {
  %6 = alloca double, align 8
  %7 = alloca double, align 8
  %8 = alloca double, align 8
  %9 = alloca double, align 8
  %10 = alloca double, align 8
  %11 = alloca double, align 8
  %12 = alloca double, align 8
  %13 = alloca double, align 8
  store double %0, double* %6, align 8
  store double %1, double* %7, align 8
  store double %2, double* %8, align 8
  store double %3, double* %9, align 8
  store double %4, double* %10, align 8
  %14 = load double, double* %6, align 8
  %15 = load double, double* %7, align 8
  %16 = fadd double %14, %15
  %17 = load double, double* %8, align 8
  %18 = fadd double %16, %17
  %19 = load double, double* %9, align 8
  %20 = fadd double %18, %19
  %21 = fdiv double %20, 2.000000e+00
  store double %21, double* %11, align 8
  %22 = load double, double* %11, align 8
  %23 = load double, double* %6, align 8
  %24 = fsub double %22, %23
  %25 = load double, double* %11, align 8
  %26 = load double, double* %7, align 8
  %27 = fsub double %25, %26
  %28 = fmul double %24, %27
  %29 = load double, double* %11, align 8
  %30 = load double, double* %8, align 8
  %31 = fsub double %29, %30
  %32 = fmul double %28, %31
  %33 = load double, double* %11, align 8
  %34 = load double, double* %9, align 8
  %35 = fsub double %33, %34
  %36 = fmul double %32, %35
  %37 = load double, double* %6, align 8
  %38 = load double, double* %7, align 8
  %39 = fmul double %37, %38
  %40 = load double, double* %8, align 8
  %41 = fmul double %39, %40
  %42 = load double, double* %9, align 8
  %43 = fmul double %41, %42
  %44 = load double, double* %10, align 8
  %45 = call double @cos(double %44) #3
  %46 = fmul double %43, %45
  %47 = load double, double* %10, align 8
  %48 = call double @cos(double %47) #3
  %49 = fmul double %46, %48
  %50 = fsub double %36, %49
  store double %50, double* %12, align 8
  %51 = load double, double* %12, align 8
  %52 = fcmp oge double %51, 0.000000e+00
  br i1 %52, label %53, label %56

53:                                               ; preds = %5
  %54 = load double, double* %12, align 8
  %55 = call double @sqrt(double %54) #3
  store double %55, double* %13, align 8
  br label %57

56:                                               ; preds = %5
  store double -1.000000e+00, double* %13, align 8
  br label %57

57:                                               ; preds = %56, %53
  %58 = load double, double* %13, align 8
  ret double %58
}

; Function Attrs: nounwind
declare dso_local double @cos(double) #1

; Function Attrs: nounwind
declare dso_local double @sqrt(double) #1

; Function Attrs: noinline nounwind uwtable
define dso_local i32 @main(i32 %0, i8** %1) #0 {
  %3 = alloca i32, align 4
  %4 = alloca i32, align 4
  %5 = alloca i8**, align 8
  %6 = alloca double, align 8
  %7 = alloca double, align 8
  %8 = alloca double, align 8
  %9 = alloca double, align 8
  %10 = alloca double, align 8
  %11 = alloca double, align 8
  store i32 0, i32* %3, align 4
  store i32 %0, i32* %4, align 4
  store i8** %1, i8*** %5, align 8
  %12 = call i32 (i8*, ...) @__isoc99_scanf(i8* getelementptr inbounds ([16 x i8], [16 x i8]* @.str, i64 0, i64 0), double* %6, double* %7, double* %8, double* %9, double* %10)
  %13 = load double, double* %10, align 8
  %14 = fdiv double %13, 3.600000e+02
  %15 = fmul double %14, 1.000000e+02
  store double %15, double* %10, align 8
  %16 = load double, double* %6, align 8
  %17 = load double, double* %7, align 8
  %18 = load double, double* %8, align 8
  %19 = load double, double* %9, align 8
  %20 = load double, double* %10, align 8
  %21 = call double @area(double %16, double %17, double %18, double %19, double %20)
  store double %21, double* %11, align 8
  %22 = load double, double* %11, align 8
  %23 = fcmp oeq double %22, -1.000000e+00
  br i1 %23, label %24, label %26

24:                                               ; preds = %2
  %25 = call i32 (i8*, ...) @printf(i8* getelementptr inbounds ([15 x i8], [15 x i8]* @.str.1, i64 0, i64 0))
  br label %29

26:                                               ; preds = %2
  %27 = load double, double* %11, align 8
  %28 = call i32 (i8*, ...) @printf(i8* getelementptr inbounds ([7 x i8], [7 x i8]* @.str.2, i64 0, i64 0), double %27)
  br label %29

29:                                               ; preds = %26, %24
  ret i32 0
}

declare dso_local i32 @__isoc99_scanf(i8*, ...) #2

declare dso_local i32 @printf(i8*, ...) #2


!llvm.module.flags = !{!0}
!llvm.ident = !{!1}

!0 = !{i32 1, !"wchar_size", i32 4}
!1 = !{!"clang version 10.0.0-4ubuntu1 "}
